target datalayout = "e-m:e-p270:32:32-p271:32:32-p272:64:64-i64:64-i128:128-f80:128-n8:16:32:64-S128"
target triple = "x86_64-pc-linux-gnu"

%struct.Vec_Int_t_ = type { i32, i32, ptr }
%struct.Gia_Obj_t_ = type <{ i64, i32 }>
%struct.Gia_Man_t_ = type { ptr, ptr, i32, i32, i32, i32, ptr, ptr, i32, i32, i32, ptr, ptr, %struct.Vec_Int_t_, %struct.Vec_Int_t_, i32, i32, i32, %struct.Vec_Int_t_, ptr, ptr, ptr, i32, i32, i32, i32, ptr, ptr, ptr, ptr, ptr, i32, i32, ptr, i32, ptr, ptr, ptr, ptr, ptr, ptr, ptr, ptr, ptr, ptr, ptr, ptr, ptr, ptr, ptr, ptr, ptr, ptr, %struct.Vec_Int_t_, %struct.Vec_Int_t_, ptr, ptr, ptr, ptr, ptr, ptr, ptr, ptr, ptr, ptr, ptr, ptr, ptr, ptr, ptr, ptr, ptr, ptr, ptr, ptr, ptr, i32, float, float, ptr, ptr, i32, ptr, ptr, ptr, ptr, ptr, ptr, ptr, ptr, ptr, ptr, ptr, ptr, ptr, ptr, ptr, i64, i64, ptr, ptr, i32, i32, i32, i32, i32, i32, i32, i32, i32, i32, i32, i32, ptr, ptr, ptr, ptr, ptr, ptr, ptr, ptr, i32, i32, i32, ptr, i32, i32, ptr, ptr, ptr, ptr, ptr, ptr, i32, i32, ptr, %struct.Vec_Int_t_, %struct.Vec_Int_t_, %struct.Vec_Int_t_, ptr, ptr, ptr, i32, i32, i32, i32, ptr, ptr, ptr, ptr, ptr }
%struct.Cnf_Dat_t_ = type { ptr, i32, i32, i32, ptr, ptr, ptr, ptr, ptr, ptr }
%struct.Qbf_Man_t_ = type { ptr, i32, i32, i32, i32, ptr, ptr, ptr, ptr, ptr, ptr, i64, i64 }
%struct.timespec = type { i64, i64 }

; Function Attrs: inlinehint nounwind uwtable
define internal ptr @Gia_ManObj(ptr noundef %0, i32 noundef %1) #2 {
  %3 = alloca ptr, align 8
  %4 = alloca i32, align 4
  store ptr %0, ptr %3, align 8, !tbaa !20
  store i32 %1, ptr %4, align 4, !tbaa !8
  %5 = load ptr, ptr %3, align 8, !tbaa !20
  %6 = getelementptr inbounds nuw %struct.Gia_Man_t_, ptr %5, i32 0, i32 6
  %7 = load ptr, ptr %6, align 8, !tbaa !54
  %8 = load i32, ptr %4, align 4, !tbaa !8
  %9 = sext i32 %8 to i64
  %10 = getelementptr inbounds %struct.Gia_Obj_t_, ptr %7, i64 %9
  ret ptr %10
}

; Function Attrs: inlinehint nounwind uwtable
define internal i32 @Vec_IntEntry(ptr noundef %0, i32 noundef %1) #2 {
  %3 = alloca ptr, align 8
  %4 = alloca i32, align 4
  store ptr %0, ptr %3, align 8, !tbaa !10
  store i32 %1, ptr %4, align 4, !tbaa !8
  %5 = load ptr, ptr %3, align 8, !tbaa !10
  %6 = getelementptr inbounds nuw %struct.Vec_Int_t_, ptr %5, i32 0, i32 2
  %7 = load ptr, ptr %6, align 8, !tbaa !17
  %8 = load i32, ptr %4, align 4, !tbaa !8
  %9 = sext i32 %8 to i64
  %10 = getelementptr inbounds i32, ptr %7, i64 %9
  %11 = load i32, ptr %10, align 4, !tbaa !8
  ret i32 %11
}

; Function Attrs: inlinehint nounwind uwtable
define internal i32 @Vec_IntSize(ptr noundef %0) #2 {
  %2 = alloca ptr, align 8
  store ptr %0, ptr %2, align 8, !tbaa !10
  %3 = load ptr, ptr %2, align 8, !tbaa !10
  %4 = getelementptr inbounds nuw %struct.Vec_Int_t_, ptr %3, i32 0, i32 1
  %5 = load i32, ptr %4, align 4, !tbaa !14
  ret i32 %5
}

; Function Attrs: inlinehint nounwind uwtable
define internal ptr @Gia_ManCo(ptr noundef %0, i32 noundef %1) #2 {
  %3 = alloca ptr, align 8
  %4 = alloca i32, align 4
  store ptr %0, ptr %3, align 8, !tbaa !20
  store i32 %1, ptr %4, align 4, !tbaa !8
  %5 = load ptr, ptr %3, align 8, !tbaa !20
  %6 = load ptr, ptr %3, align 8, !tbaa !20
  %7 = getelementptr inbounds nuw %struct.Gia_Man_t_, ptr %6, i32 0, i32 12
  %8 = load ptr, ptr %7, align 8, !tbaa !51
  %9 = load i32, ptr %4, align 4, !tbaa !8
  %10 = call i32 @Vec_IntEntry(ptr noundef %8, i32 noundef %9)
  %11 = call ptr @Gia_ManObj(ptr noundef %5, i32 noundef %10)
  ret ptr %11
}

; Function Attrs: inlinehint nounwind uwtable
define internal ptr @Vec_IntStartFull(i32 noundef %0) #2 {
  %2 = alloca i32, align 4
  %3 = alloca ptr, align 8
  store i32 %0, ptr %2, align 4, !tbaa !8
  call void @llvm.lifetime.start.p0(i64 8, ptr %3) #14
  %4 = load i32, ptr %2, align 4, !tbaa !8
  %5 = call ptr @Vec_IntAlloc(i32 noundef %4)
  store ptr %5, ptr %3, align 8, !tbaa !10
  %6 = load i32, ptr %2, align 4, !tbaa !8
  %7 = load ptr, ptr %3, align 8, !tbaa !10
  %8 = getelementptr inbounds nuw %struct.Vec_Int_t_, ptr %7, i32 0, i32 1
  store i32 %6, ptr %8, align 4, !tbaa !14
  %9 = load ptr, ptr %3, align 8, !tbaa !10
  %10 = getelementptr inbounds nuw %struct.Vec_Int_t_, ptr %9, i32 0, i32 2
  %11 = load ptr, ptr %10, align 8, !tbaa !17
  %12 = icmp ne ptr %11, null
  br i1 %12, label %13, label %20

13:                                               ; preds = %1
  %14 = load ptr, ptr %3, align 8, !tbaa !10
  %15 = getelementptr inbounds nuw %struct.Vec_Int_t_, ptr %14, i32 0, i32 2
  %16 = load ptr, ptr %15, align 8, !tbaa !17
  %17 = load i32, ptr %2, align 4, !tbaa !8
  %18 = sext i32 %17 to i64
  %19 = mul i64 4, %18
  call void @llvm.memset.p0.i64(ptr align 4 %16, i8 -1, i64 %19, i1 false)
  br label %20

20:                                               ; preds = %13, %1
  %21 = load ptr, ptr %3, align 8, !tbaa !10
  call void @llvm.lifetime.end.p0(i64 8, ptr %3) #14
  ret ptr %21
}

; Function Attrs: inlinehint nounwind uwtable
define internal ptr @Vec_IntAlloc(i32 noundef %0) #2 {
  %2 = alloca i32, align 4
  %3 = alloca ptr, align 8
  store i32 %0, ptr %2, align 4, !tbaa !8
  call void @llvm.lifetime.start.p0(i64 8, ptr %3) #14
  %4 = call noalias ptr @malloc(i64 noundef 16) #16
  store ptr %4, ptr %3, align 8, !tbaa !10
  %5 = load i32, ptr %2, align 4, !tbaa !8
  %6 = icmp sgt i32 %5, 0
  br i1 %6, label %7, label %11

7:                                                ; preds = %1
  %8 = load i32, ptr %2, align 4, !tbaa !8
  %9 = icmp slt i32 %8, 16
  br i1 %9, label %10, label %11

10:                                               ; preds = %7
  store i32 16, ptr %2, align 4, !tbaa !8
  br label %11

11:                                               ; preds = %10, %7, %1
  %12 = load ptr, ptr %3, align 8, !tbaa !10
  %13 = getelementptr inbounds nuw %struct.Vec_Int_t_, ptr %12, i32 0, i32 1
  store i32 0, ptr %13, align 4, !tbaa !14
  %14 = load i32, ptr %2, align 4, !tbaa !8
  %15 = load ptr, ptr %3, align 8, !tbaa !10
  %16 = getelementptr inbounds nuw %struct.Vec_Int_t_, ptr %15, i32 0, i32 0
  store i32 %14, ptr %16, align 8, !tbaa !19
  %17 = load ptr, ptr %3, align 8, !tbaa !10
  %18 = getelementptr inbounds nuw %struct.Vec_Int_t_, ptr %17, i32 0, i32 0
  %19 = load i32, ptr %18, align 8, !tbaa !19
  %20 = icmp ne i32 %19, 0
  br i1 %20, label %21, label %28

21:                                               ; preds = %11
  %22 = load ptr, ptr %3, align 8, !tbaa !10
  %23 = getelementptr inbounds nuw %struct.Vec_Int_t_, ptr %22, i32 0, i32 0
  %24 = load i32, ptr %23, align 8, !tbaa !19
  %25 = sext i32 %24 to i64
  %26 = mul i64 4, %25
  %27 = call noalias ptr @malloc(i64 noundef %26) #16
  br label %29

28:                                               ; preds = %11
  br label %29

29:                                               ; preds = %28, %21
  %30 = phi ptr [ %27, %21 ], [ null, %28 ]
  %31 = load ptr, ptr %3, align 8, !tbaa !10
  %32 = getelementptr inbounds nuw %struct.Vec_Int_t_, ptr %31, i32 0, i32 2
  store ptr %30, ptr %32, align 8, !tbaa !17
  %33 = load ptr, ptr %3, align 8, !tbaa !10
  call void @llvm.lifetime.end.p0(i64 8, ptr %3) #14
  ret ptr %33
}

; Function Attrs: inlinehint nounwind uwtable
define internal i32 @Gia_ManPiNum(ptr noundef %0) #2 {
  %2 = alloca ptr, align 8
  store ptr %0, ptr %2, align 8, !tbaa !20
  %3 = load ptr, ptr %2, align 8, !tbaa !20
  %4 = getelementptr inbounds nuw %struct.Gia_Man_t_, ptr %3, i32 0, i32 11
  %5 = load ptr, ptr %4, align 8, !tbaa !46
  %6 = call i32 @Vec_IntSize(ptr noundef %5)
  %7 = load ptr, ptr %2, align 8, !tbaa !20
  %8 = getelementptr inbounds nuw %struct.Gia_Man_t_, ptr %7, i32 0, i32 2
  %9 = load i32, ptr %8, align 8, !tbaa !53
  %10 = sub nsw i32 %6, %9
  ret i32 %10
}

; Function Attrs: inlinehint nounwind uwtable
define internal i64 @Abc_Clock() #2 {
  %1 = alloca i64, align 8
  %2 = alloca %struct.timespec, align 8
  %3 = alloca i32, align 4
  %4 = alloca i64, align 8
  call void @llvm.lifetime.start.p0(i64 16, ptr %2) #14
  %5 = call i32 @clock_gettime(i32 noundef 1, ptr noundef %2) #14
  %6 = icmp slt i32 %5, 0
  br i1 %6, label %7, label %8

7:                                                ; preds = %0
  store i64 -1, ptr %1, align 8
  store i32 1, ptr %3, align 4
  br label %19

8:                                                ; preds = %0
  call void @llvm.lifetime.start.p0(i64 8, ptr %4) #14
  %9 = getelementptr inbounds nuw %struct.timespec, ptr %2, i32 0, i32 0
  %10 = load i64, ptr %9, align 8, !tbaa !214
  %11 = mul nsw i64 %10, 1000000
  store i64 %11, ptr %4, align 8, !tbaa !72
  %12 = getelementptr inbounds nuw %struct.timespec, ptr %2, i32 0, i32 1
  %13 = load i64, ptr %12, align 8, !tbaa !216
  %14 = mul nsw i64 %13, 1000000
  %15 = sdiv i64 %14, 1000000000
  %16 = load i64, ptr %4, align 8, !tbaa !72
  %17 = add nsw i64 %16, %15
  store i64 %17, ptr %4, align 8, !tbaa !72
  %18 = load i64, ptr %4, align 8, !tbaa !72
  store i64 %18, ptr %1, align 8
  store i32 1, ptr %3, align 4
  call void @llvm.lifetime.end.p0(i64 8, ptr %4) #14
  br label %19

19:                                               ; preds = %8, %7
  call void @llvm.lifetime.end.p0(i64 16, ptr %2) #14
  %20 = load i64, ptr %1, align 8
  ret i64 %20
}

; Function Attrs: inlinehint nounwind uwtable
define internal void @Gia_ObjFlipFaninC0(ptr noundef %0) #2 {
  %2 = alloca ptr, align 8
  store ptr %0, ptr %2, align 8, !tbaa !47
  %3 = load ptr, ptr %2, align 8, !tbaa !47
  %4 = load i64, ptr %3, align 4
  %5 = lshr i64 %4, 29
  %6 = and i64 %5, 1
  %7 = trunc i64 %6 to i32
  %8 = xor i32 %7, 1
  %9 = zext i32 %8 to i64
  %10 = load i64, ptr %3, align 4
  %11 = and i64 %9, 1
  %12 = shl i64 %11, 29
  %13 = and i64 %10, -536870913
  %14 = or i64 %13, %12
  store i64 %14, ptr %3, align 4
  ret void
}

; Function Attrs: inlinehint nounwind uwtable
define internal ptr @Gia_ManPo(ptr noundef %0, i32 noundef %1) #2 {
  %3 = alloca ptr, align 8
  %4 = alloca i32, align 4
  store ptr %0, ptr %3, align 8, !tbaa !20
  store i32 %1, ptr %4, align 4, !tbaa !8
  %5 = load ptr, ptr %3, align 8, !tbaa !20
  %6 = load i32, ptr %4, align 4, !tbaa !8
  %7 = call ptr @Gia_ManCo(ptr noundef %5, i32 noundef %6)
  ret ptr %7
}

; Function Attrs: nounwind uwtable
define ptr @Gia_QbfAlloc(ptr noundef %0, i32 noundef %1, i32 noundef %2, i32 noundef %3) #0 {
  %5 = alloca ptr, align 8
  %6 = alloca i32, align 4
  %7 = alloca i32, align 4
  %8 = alloca i32, align 4
  %9 = alloca ptr, align 8
  %10 = alloca ptr, align 8
  store ptr %0, ptr %5, align 8, !tbaa !20
  store i32 %1, ptr %6, align 4, !tbaa !8
  store i32 %2, ptr %7, align 4, !tbaa !8
  store i32 %3, ptr %8, align 4, !tbaa !8
  call void @llvm.lifetime.start.p0(i64 8, ptr %9) #14
  call void @llvm.lifetime.start.p0(i64 8, ptr %10) #14
  %11 = load ptr, ptr %5, align 8, !tbaa !20
  %12 = call ptr @Gia_ManPo(ptr noundef %11, i32 noundef 0)
  call void @Gia_ObjFlipFaninC0(ptr noundef %12)
  %13 = load ptr, ptr %5, align 8, !tbaa !20
  %14 = call ptr @Mf_ManGenerateCnf(ptr noundef %13, i32 noundef 8, i32 noundef 0, i32 noundef 1, i32 noundef 0, i32 noundef 0)
  store ptr %14, ptr %10, align 8, !tbaa !80
  %15 = load ptr, ptr %5, align 8, !tbaa !20
  %16 = call ptr @Gia_ManPo(ptr noundef %15, i32 noundef 0)
  call void @Gia_ObjFlipFaninC0(ptr noundef %16)
  %17 = call noalias ptr @calloc(i64 noundef 1, i64 noundef 88) #17
  store ptr %17, ptr %9, align 8, !tbaa !104
  %18 = call i64 @Abc_Clock()
  %19 = load ptr, ptr %9, align 8, !tbaa !104
  %20 = getelementptr inbounds nuw %struct.Qbf_Man_t_, ptr %19, i32 0, i32 11
  store i64 %18, ptr %20, align 8, !tbaa !106
  %21 = load ptr, ptr %5, align 8, !tbaa !20
  %22 = load ptr, ptr %9, align 8, !tbaa !104
  %23 = getelementptr inbounds nuw %struct.Qbf_Man_t_, ptr %22, i32 0, i32 0
  store ptr %21, ptr %23, align 8, !tbaa !108
  %24 = load i32, ptr %6, align 4, !tbaa !8
  %25 = load ptr, ptr %9, align 8, !tbaa !104
  %26 = getelementptr inbounds nuw %struct.Qbf_Man_t_, ptr %25, i32 0, i32 1
  store i32 %24, ptr %26, align 8, !tbaa !109
  %27 = load ptr, ptr %5, align 8, !tbaa !20
  %28 = call i32 @Gia_ManPiNum(ptr noundef %27)
  %29 = load i32, ptr %6, align 4, !tbaa !8
  %30 = sub nsw i32 %28, %29
  %31 = load ptr, ptr %9, align 8, !tbaa !104
  %32 = getelementptr inbounds nuw %struct.Qbf_Man_t_, ptr %31, i32 0, i32 2
  store i32 %30, ptr %32, align 4, !tbaa !110
  %33 = load i32, ptr %8, align 4, !tbaa !8
  %34 = load ptr, ptr %9, align 8, !tbaa !104
  %35 = getelementptr inbounds nuw %struct.Qbf_Man_t_, ptr %34, i32 0, i32 3
  store i32 %33, ptr %35, align 8, !tbaa !111
  %36 = load ptr, ptr %10, align 8, !tbaa !80
  %37 = getelementptr inbounds nuw %struct.Cnf_Dat_t_, ptr %36, i32 0, i32 1
  %38 = load i32, ptr %37, align 8, !tbaa !84
  %39 = load ptr, ptr %5, align 8, !tbaa !20
  %40 = call i32 @Gia_ManPiNum(ptr noundef %39)
  %41 = sub nsw i32 %38, %40
  %42 = load ptr, ptr %9, align 8, !tbaa !104
  %43 = getelementptr inbounds nuw %struct.Qbf_Man_t_, ptr %42, i32 0, i32 4
  store i32 %41, ptr %43, align 4, !tbaa !112
  %44 = load ptr, ptr %10, align 8, !tbaa !80
  %45 = call ptr @Cnf_DataWriteIntoSolver(ptr noundef %44, i32 noundef 1, i32 noundef 0)
  %46 = load ptr, ptr %9, align 8, !tbaa !104
  %47 = getelementptr inbounds nuw %struct.Qbf_Man_t_, ptr %46, i32 0, i32 5
  store ptr %45, ptr %47, align 8, !tbaa !113
  %48 = call ptr @sat_solver_new()
  %49 = load ptr, ptr %9, align 8, !tbaa !104
  %50 = getelementptr inbounds nuw %struct.Qbf_Man_t_, ptr %49, i32 0, i32 6
  store ptr %48, ptr %50, align 8, !tbaa !114
  %51 = load i32, ptr %7, align 4, !tbaa !8
  %52 = icmp ne i32 %51, 0
  br i1 %52, label %53, label %55

53:                                               ; preds = %4
  %54 = call ptr (...) @bmcg_sat_solver_start()
  br label %56

55:                                               ; preds = %4
  br label %56

56:                                               ; preds = %55, %53
  %57 = phi ptr [ %54, %53 ], [ null, %55 ]
  %58 = load ptr, ptr %9, align 8, !tbaa !104
  %59 = getelementptr inbounds nuw %struct.Qbf_Man_t_, ptr %58, i32 0, i32 7
  store ptr %57, ptr %59, align 8, !tbaa !115
  %60 = load ptr, ptr %5, align 8, !tbaa !20
  %61 = call i32 @Gia_ManPiNum(ptr noundef %60)
  %62 = call ptr @Vec_IntAlloc(i32 noundef %61)
  %63 = load ptr, ptr %9, align 8, !tbaa !104
  %64 = getelementptr inbounds nuw %struct.Qbf_Man_t_, ptr %63, i32 0, i32 8
  store ptr %62, ptr %64, align 8, !tbaa !116
  %65 = load i32, ptr %6, align 4, !tbaa !8
  %66 = call ptr @Vec_IntStartFull(i32 noundef %65)
  %67 = load ptr, ptr %9, align 8, !tbaa !104
  %68 = getelementptr inbounds nuw %struct.Qbf_Man_t_, ptr %67, i32 0, i32 9
  store ptr %66, ptr %68, align 8, !tbaa !117
  %69 = load i32, ptr %6, align 4, !tbaa !8
  %70 = call ptr @Vec_IntAlloc(i32 noundef %69)
  %71 = load ptr, ptr %9, align 8, !tbaa !104
  %72 = getelementptr inbounds nuw %struct.Qbf_Man_t_, ptr %71, i32 0, i32 10
  store ptr %70, ptr %72, align 8, !tbaa !118
  %73 = load ptr, ptr %9, align 8, !tbaa !104
  %74 = getelementptr inbounds nuw %struct.Qbf_Man_t_, ptr %73, i32 0, i32 6
  %75 = load ptr, ptr %74, align 8, !tbaa !114
  %76 = load i32, ptr %6, align 4, !tbaa !8
  call void @sat_solver_setnvars(ptr noundef %75, i32 noundef %76)
  %77 = load ptr, ptr %9, align 8, !tbaa !104
  %78 = getelementptr inbounds nuw %struct.Qbf_Man_t_, ptr %77, i32 0, i32 7
  %79 = load ptr, ptr %78, align 8, !tbaa !115
  %80 = icmp ne ptr %79, null
  br i1 %80, label %81, label %86

81:                                               ; preds = %56
  %82 = load ptr, ptr %9, align 8, !tbaa !104
  %83 = getelementptr inbounds nuw %struct.Qbf_Man_t_, ptr %82, i32 0, i32 7
  %84 = load ptr, ptr %83, align 8, !tbaa !115
  %85 = load i32, ptr %6, align 4, !tbaa !8
  call void @bmcg_sat_solver_set_nvars(ptr noundef %84, i32 noundef %85)
  br label %86

86:                                               ; preds = %81, %56
  %87 = load ptr, ptr %10, align 8, !tbaa !80
  call void @Cnf_DataFree(ptr noundef %87)
  %88 = load ptr, ptr %9, align 8, !tbaa !104
  call void @llvm.lifetime.end.p0(i64 8, ptr %10) #14
  call void @llvm.lifetime.end.p0(i64 8, ptr %9) #14
  ret ptr %88
}