; Function Attrs: nounwind uwtable
define noalias noundef ptr @Gia_QbfAlloc(ptr noundef %0, i32 noundef %1, i32 noundef %2, i32 noundef %3) local_unnamed_addr #0 {
  %5 = alloca %struct.timespec, align 8
  %6 = getelementptr i8, ptr %0, i64 32
  %.val41 = load ptr, ptr %6, align 8, !tbaa !35
  %7 = getelementptr i8, ptr %0, i64 72
  %.val42 = load ptr, ptr %7, align 8, !tbaa !40
  %8 = getelementptr i8, ptr %.val42, i64 8
  %.val42.val = load ptr, ptr %8, align 8, !tbaa !10
  %9 = load i32, ptr %.val42.val, align 4, !tbaa !12
  %10 = sext i32 %9 to i64
  %11 = getelementptr inbounds %struct.Gia_Obj_t_, ptr %.val41, i64 %10
  %12 = load i64, ptr %11, align 4
  %13 = xor i64 %12, 536870912
  store i64 %13, ptr %11, align 4
  %14 = tail call ptr @Mf_ManGenerateCnf(ptr noundef %0, i32 noundef 8, i32 noundef 0, i32 noundef 1, i32 noundef 0, i32 noundef 0) #29
  %.val39 = load ptr, ptr %6, align 8, !tbaa !35
  %.val40 = load ptr, ptr %7, align 8, !tbaa !40
  %15 = getelementptr i8, ptr %.val40, i64 8
  %.val40.val = load ptr, ptr %15, align 8, !tbaa !10
  %16 = load i32, ptr %.val40.val, align 4, !tbaa !12
  %17 = sext i32 %16 to i64
  %18 = getelementptr inbounds %struct.Gia_Obj_t_, ptr %.val39, i64 %17
  %19 = load i64, ptr %18, align 4
  %20 = xor i64 %19, 536870912
  store i64 %20, ptr %18, align 4
  %21 = tail call noalias dereferenceable_or_null(88) ptr @calloc(i64 noundef 1, i64 noundef 88) #32
  call void @llvm.lifetime.start.p0(i64 16, ptr nonnull %5) #29
  %22 = call i32 @clock_gettime(i32 noundef 1, ptr noundef nonnull %5) #29
  %23 = icmp slt i32 %22, 0
  br i1 %23, label %Abc_Clock.exit, label %24

24:                                               ; preds = %4
  %25 = load i64, ptr %5, align 8, !tbaa !72
  %26 = mul nsw i64 %25, 1000000
  %27 = getelementptr inbounds nuw i8, ptr %5, i64 8
  %28 = load i64, ptr %27, align 8, !tbaa !74
  %29 = sdiv i64 %28, 1000
  %30 = add nsw i64 %29, %26
  br label %Abc_Clock.exit

Abc_Clock.exit:                                   ; preds = %4, %24
  %.0.i = phi i64 [ %30, %24 ], [ -1, %4 ]
  call void @llvm.lifetime.end.p0(i64 16, ptr nonnull %5) #29
  %31 = getelementptr inbounds nuw i8, ptr %21, i64 72
  store i64 %.0.i, ptr %31, align 8, !tbaa !96
  store ptr %0, ptr %21, align 8, !tbaa !99
  %32 = getelementptr inbounds nuw i8, ptr %21, i64 8
  store i32 %1, ptr %32, align 8, !tbaa !100
  %33 = getelementptr i8, ptr %0, i64 16
  %.val37 = load i32, ptr %33, align 8, !tbaa !16
  %34 = getelementptr i8, ptr %0, i64 64
  %.val38 = load ptr, ptr %34, align 8, !tbaa !36
  %35 = getelementptr i8, ptr %.val38, i64 4
  %.val38.val = load i32, ptr %35, align 4, !tbaa !11
  %36 = sub nsw i32 %.val38.val, %.val37
  %37 = sub nsw i32 %36, %1
  %38 = getelementptr inbounds nuw i8, ptr %21, i64 12
  store i32 %37, ptr %38, align 4, !tbaa !101
  %39 = getelementptr inbounds nuw i8, ptr %21, i64 16
  store i32 %3, ptr %39, align 8, !tbaa !102
  %40 = getelementptr inbounds nuw i8, ptr %14, i64 8
  %41 = load i32, ptr %40, align 8, !tbaa !75
  %42 = sub nsw i32 %41, %36
  %43 = getelementptr inbounds nuw i8, ptr %21, i64 20
  store i32 %42, ptr %43, align 4, !tbaa !103
  %44 = call ptr @Cnf_DataWriteIntoSolver(ptr noundef %14, i32 noundef 1, i32 noundef 0) #29
  %45 = getelementptr inbounds nuw i8, ptr %21, i64 24
  store ptr %44, ptr %45, align 8, !tbaa !104
  %46 = call ptr @sat_solver_new() #29
  %47 = getelementptr inbounds nuw i8, ptr %21, i64 32
  store ptr %46, ptr %47, align 8, !tbaa !105
  %.not = icmp eq i32 %2, 0
  br i1 %.not, label %50, label %48

48:                                               ; preds = %Abc_Clock.exit
  %49 = call ptr (...) @bmcg_sat_solver_start() #29
  br label %50

50:                                               ; preds = %Abc_Clock.exit, %48
  %51 = phi ptr [ %49, %48 ], [ null, %Abc_Clock.exit ]
  %52 = getelementptr inbounds nuw i8, ptr %21, i64 40
  store ptr %51, ptr %52, align 8, !tbaa !106
  %.val = load i32, ptr %33, align 8, !tbaa !16
  %.val34 = load ptr, ptr %34, align 8, !tbaa !36
  %53 = getelementptr i8, ptr %.val34, i64 4
  %.val34.val = load i32, ptr %53, align 4, !tbaa !11
  %54 = sub nsw i32 %.val34.val, %.val
  %55 = call noalias dereferenceable_or_null(16) ptr @malloc(i64 noundef 16) #28
  %56 = add i32 %54, -1
  %or.cond.i = icmp ult i32 %56, 15
  %spec.store.select.i = select i1 %or.cond.i, i32 16, i32 %54
  %57 = getelementptr inbounds nuw i8, ptr %55, i64 4
  store i32 0, ptr %57, align 4, !tbaa !11
  store i32 %spec.store.select.i, ptr %55, align 8, !tbaa !3
  %.not.i = icmp eq i32 %spec.store.select.i, 0
  br i1 %.not.i, label %Vec_IntAlloc.exit, label %58

58:                                               ; preds = %50
  %59 = sext i32 %spec.store.select.i to i64
  %60 = shl nsw i64 %59, 2
  %61 = call noalias ptr @malloc(i64 noundef %60) #28
  br label %Vec_IntAlloc.exit

Vec_IntAlloc.exit:                                ; preds = %50, %58
  %62 = phi ptr [ %61, %58 ], [ null, %50 ]
  %63 = getelementptr inbounds nuw i8, ptr %55, i64 8
  store ptr %62, ptr %63, align 8, !tbaa !10
  %64 = getelementptr inbounds nuw i8, ptr %21, i64 48
  store ptr %55, ptr %64, align 8, !tbaa !107
  %65 = call noalias dereferenceable_or_null(16) ptr @malloc(i64 noundef 16) #28
  %66 = add i32 %1, -1
  %or.cond.i.i = icmp ult i32 %66, 15
  %spec.store.select.i.i = select i1 %or.cond.i.i, i32 16, i32 %1
  %67 = getelementptr inbounds nuw i8, ptr %65, i64 4
  store i32 %spec.store.select.i.i, ptr %65, align 8, !tbaa !3
  %.not.i.i = icmp eq i32 %spec.store.select.i.i, 0
  br i1 %.not.i.i, label %Vec_IntAlloc.exit.thread.i, label %Vec_IntAlloc.exit.i

Vec_IntAlloc.exit.thread.i:                       ; preds = %Vec_IntAlloc.exit
  %68 = getelementptr inbounds nuw i8, ptr %65, i64 8
  store ptr null, ptr %68, align 8, !tbaa !10
  store i32 %1, ptr %67, align 4, !tbaa !11
  br label %Vec_IntStartFull.exit

Vec_IntAlloc.exit.i:                              ; preds = %Vec_IntAlloc.exit
  %69 = sext i32 %spec.store.select.i.i to i64
  %70 = shl nsw i64 %69, 2
  %71 = call noalias ptr @malloc(i64 noundef %70) #28
  %72 = getelementptr inbounds nuw i8, ptr %65, i64 8
  store ptr %71, ptr %72, align 8, !tbaa !10
  store i32 %1, ptr %67, align 4, !tbaa !11
  %.not.i43 = icmp eq ptr %71, null
  br i1 %.not.i43, label %Vec_IntStartFull.exit, label %73

73:                                               ; preds = %Vec_IntAlloc.exit.i
  %74 = sext i32 %1 to i64
  %75 = shl nsw i64 %74, 2
  call void @llvm.memset.p0.i64(ptr nonnull align 4 %71, i8 -1, i64 %75, i1 false)
  br label %Vec_IntStartFull.exit

Vec_IntStartFull.exit:                            ; preds = %Vec_IntAlloc.exit.thread.i, %Vec_IntAlloc.exit.i, %73
  %76 = getelementptr inbounds nuw i8, ptr %21, i64 56
  store ptr %65, ptr %76, align 8, !tbaa !108
  %77 = call noalias dereferenceable_or_null(16) ptr @malloc(i64 noundef 16) #28
  %78 = getelementptr inbounds nuw i8, ptr %77, i64 4
  store i32 0, ptr %78, align 4, !tbaa !11
  store i32 %spec.store.select.i.i, ptr %77, align 8, !tbaa !3
  br i1 %.not.i.i, label %Vec_IntAlloc.exit47, label %79

79:                                               ; preds = %Vec_IntStartFull.exit
  %80 = sext i32 %spec.store.select.i.i to i64
  %81 = shl nsw i64 %80, 2
  %82 = call noalias ptr @malloc(i64 noundef %81) #28
  br label %Vec_IntAlloc.exit47

Vec_IntAlloc.exit47:                              ; preds = %Vec_IntStartFull.exit, %79
  %83 = phi ptr [ %82, %79 ], [ null, %Vec_IntStartFull.exit ]
  %84 = getelementptr inbounds nuw i8, ptr %77, i64 8
  store ptr %83, ptr %84, align 8, !tbaa !10
  %85 = getelementptr inbounds nuw i8, ptr %21, i64 64
  store ptr %77, ptr %85, align 8, !tbaa !109
  call void @sat_solver_setnvars(ptr noundef %46, i32 noundef %1) #29
  %.not33 = icmp eq ptr %51, null
  br i1 %.not33, label %87, label %86

86:                                               ; preds = %Vec_IntAlloc.exit47
  call void @bmcg_sat_solver_set_nvars(ptr noundef nonnull %51, i32 noundef %1) #29
  br label %87

87:                                               ; preds = %86, %Vec_IntAlloc.exit47
  call void @Cnf_DataFree(ptr noundef nonnull %14) #29
  ret ptr %21
}